target datalayout = "e-m:e-p270:32:32-p271:32:32-p272:64:64-i64:64-i128:128-f80:128-n8:16:32:64-S128"
target triple = "x86_64-pc-linux-gnu"

%class.BinaryMagnitudeSeq = type { i64, ptr }

; Function Attrs: mustprogress nounwind uwtable
define hidden void @_ZN18BinaryMagnitudeSeq5clearEv(ptr noundef nonnull align 8 dereferenceable(16) %0) #1 align 2 {
  %2 = alloca ptr, align 8
  %3 = alloca i32, align 4
  store ptr %0, ptr %2, align 8
  %4 = load ptr, ptr %2, align 8
  store i32 0, ptr %3, align 4
  br label %5

5:                                                ; preds = %14, %1
  %6 = load i32, ptr %3, align 4
  %7 = icmp slt i32 %6, 64
  br i1 %7, label %8, label %17

8:                                                ; preds = %5
  %9 = getelementptr inbounds %class.BinaryMagnitudeSeq, ptr %4, i32 0, i32 1
  %10 = load ptr, ptr %9, align 8
  %11 = load i32, ptr %3, align 4
  %12 = sext i32 %11 to i64
  %13 = getelementptr inbounds i64, ptr %10, i64 %12
  store i64 0, ptr %13, align 8
  br label %14

14:                                               ; preds = %8
  %15 = load i32, ptr %3, align 4
  %16 = add nsw i32 %15, 1
  store i32 %16, ptr %3, align 4
  br label %5, !llvm.loop !14

17:                                               ; preds = %5
  %18 = getelementptr inbounds %class.BinaryMagnitudeSeq, ptr %4, i32 0, i32 0
  store i64 0, ptr %18, align 8
  ret void
}

; Function Attrs: mustprogress nounwind uwtable
define hidden void @_ZN18BinaryMagnitudeSeqC2Ev(ptr noundef nonnull align 8 dereferenceable(16) %0) unnamed_addr #1 align 2 {
  %2 = alloca ptr, align 8
  store ptr %0, ptr %2, align 8
  %3 = load ptr, ptr %2, align 8
  %4 = call noundef ptr @_Z12AllocateHeapm8MEMFLAGSN17AllocFailStrategy13AllocFailEnumE(i64 noundef 512, i8 noundef zeroext 9, i32 noundef 0)
  %5 = getelementptr inbounds %class.BinaryMagnitudeSeq, ptr %3, i32 0, i32 1
  store ptr %4, ptr %5, align 8
  call void @_ZN18BinaryMagnitudeSeq5clearEv(ptr noundef nonnull align 8 dereferenceable(16) %3)
  ret void
}