; Function Attrs: mustprogress nounwind uwtable
define hidden void @_ZN18BinaryMagnitudeSeqC2Ev(ptr nocapture noundef nonnull align 8 dereferenceable(16) %0) unnamed_addr #0 align 2 {
  %2 = tail call noundef ptr @_Z12AllocateHeapm8MEMFLAGSN17AllocFailStrategy13AllocFailEnumE(i64 noundef 512, i8 noundef zeroext 9, i32 noundef 0) #9
  %3 = getelementptr inbounds i8, ptr %0, i64 8
  store ptr %2, ptr %3, align 8
  br label %4

4:                                                ; preds = %4, %1
  %indvars.iv.i = phi i64 [ 0, %1 ], [ %indvars.iv.next.i, %4 ]
  %5 = load ptr, ptr %3, align 8
  %6 = getelementptr inbounds i64, ptr %5, i64 %indvars.iv.i
  store i64 0, ptr %6, align 8
  %indvars.iv.next.i = add nuw nsw i64 %indvars.iv.i, 1
  %exitcond.not.i = icmp eq i64 %indvars.iv.next.i, 64
  br i1 %exitcond.not.i, label %_ZN18BinaryMagnitudeSeq5clearEv.exit, label %4, !llvm.loop !13

_ZN18BinaryMagnitudeSeq5clearEv.exit:             ; preds = %4
  store i64 0, ptr %0, align 8
  ret void
}